target datalayout = "e-m:e-p270:32:32-p271:32:32-p272:64:64-i64:64-i128:128-f80:128-n8:16:32:64-S128"
target triple = "x86_64-pc-linux-gnu"

%struct.STBIR__V_FIRST_INFO = type { double, double, i32, i32, i32, i32 }

; Function Attrs: nounwind uwtable
define i32 @stbir__should_do_vertical_first(ptr noundef %0, i32 noundef %1, float noundef %2, i32 noundef %3, i32 noundef %4, float noundef %5, i32 noundef %6, i32 noundef %7, ptr noundef %8) #3 {
  %10 = alloca ptr, align 8
  %11 = alloca i32, align 4
  %12 = alloca float, align 4
  %13 = alloca i32, align 4
  %14 = alloca i32, align 4
  %15 = alloca float, align 4
  %16 = alloca i32, align 4
  %17 = alloca i32, align 4
  %18 = alloca ptr, align 8
  %19 = alloca double, align 8
  %20 = alloca double, align 8
  %21 = alloca ptr, align 8
  %22 = alloca i32, align 4
  %23 = alloca i32, align 4
  store ptr %0, ptr %10, align 8, !tbaa !21
  store i32 %1, ptr %11, align 4, !tbaa !26
  store float %2, ptr %12, align 4, !tbaa !29
  store i32 %3, ptr %13, align 4, !tbaa !26
  store i32 %4, ptr %14, align 4, !tbaa !26
  store float %5, ptr %15, align 4, !tbaa !29
  store i32 %6, ptr %16, align 4, !tbaa !26
  store i32 %7, ptr %17, align 4, !tbaa !26
  store ptr %8, ptr %18, align 8, !tbaa !1043
  call void @llvm.lifetime.start.p0(i64 8, ptr %19) #12
  call void @llvm.lifetime.start.p0(i64 8, ptr %20) #12
  call void @llvm.lifetime.start.p0(i64 8, ptr %21) #12
  call void @llvm.lifetime.start.p0(i64 4, ptr %22) #12
  call void @llvm.lifetime.start.p0(i64 4, ptr %23) #12
  %24 = load i32, ptr %16, align 4, !tbaa !26
  %25 = icmp sle i32 %24, 4
  br i1 %25, label %29, label %26

26:                                               ; preds = %9
  %27 = load i32, ptr %13, align 4, !tbaa !26
  %28 = icmp sle i32 %27, 4
  br i1 %28, label %29, label %34

29:                                               ; preds = %26, %9
  %30 = load i32, ptr %16, align 4, !tbaa !26
  %31 = load i32, ptr %13, align 4, !tbaa !26
  %32 = icmp slt i32 %30, %31
  %33 = select i1 %32, i32 6, i32 7
  store i32 %33, ptr %23, align 4, !tbaa !26
  br label %58

34:                                               ; preds = %26
  %35 = load float, ptr %15, align 4, !tbaa !29
  %36 = fcmp ole float %35, 1.000000e+00
  br i1 %36, label %37, label %41

37:                                               ; preds = %34
  %38 = load i32, ptr %17, align 4, !tbaa !26
  %39 = icmp ne i32 %38, 0
  %40 = select i1 %39, i32 1, i32 0
  store i32 %40, ptr %23, align 4, !tbaa !26
  br label %57

41:                                               ; preds = %34
  %42 = load float, ptr %15, align 4, !tbaa !29
  %43 = fcmp ole float %42, 2.000000e+00
  br i1 %43, label %44, label %45

44:                                               ; preds = %41
  store i32 2, ptr %23, align 4, !tbaa !26
  br label %56

45:                                               ; preds = %41
  %46 = load float, ptr %15, align 4, !tbaa !29
  %47 = fcmp ole float %46, 3.000000e+00
  br i1 %47, label %48, label %49

48:                                               ; preds = %45
  store i32 3, ptr %23, align 4, !tbaa !26
  br label %55

49:                                               ; preds = %45
  %50 = load float, ptr %15, align 4, !tbaa !29
  %51 = fcmp ole float %50, 4.000000e+00
  br i1 %51, label %52, label %53

52:                                               ; preds = %49
  store i32 5, ptr %23, align 4, !tbaa !26
  br label %54

53:                                               ; preds = %49
  store i32 6, ptr %23, align 4, !tbaa !26
  br label %54

54:                                               ; preds = %53, %52
  br label %55

55:                                               ; preds = %54, %48
  br label %56

56:                                               ; preds = %55, %44
  br label %57

57:                                               ; preds = %56, %37
  br label %58

58:                                               ; preds = %57, %29
  %59 = load ptr, ptr %10, align 8, !tbaa !21
  %60 = load i32, ptr %23, align 4, !tbaa !26
  %61 = sext i32 %60 to i64
  %62 = getelementptr inbounds [4 x float], ptr %59, i64 %61
  %63 = getelementptr inbounds [4 x float], ptr %62, i64 0, i64 0
  store ptr %63, ptr %21, align 8, !tbaa !21
  %64 = load i32, ptr %11, align 4, !tbaa !26
  %65 = sitofp i32 %64 to float
  %66 = load ptr, ptr %21, align 8, !tbaa !21
  %67 = getelementptr inbounds float, ptr %66, i64 0
  %68 = load float, ptr %67, align 4, !tbaa !29
  %69 = fmul float %65, %68
  %70 = load float, ptr %12, align 4, !tbaa !29
  %71 = load i32, ptr %14, align 4, !tbaa !26
  %72 = sitofp i32 %71 to float
  %73 = fmul float %70, %72
  %74 = load ptr, ptr %21, align 8, !tbaa !21
  %75 = getelementptr inbounds float, ptr %74, i64 1
  %76 = load float, ptr %75, align 4, !tbaa !29
  %77 = fmul float %73, %76
  %78 = fadd float %69, %77
  %79 = fpext float %78 to double
  store double %79, ptr %20, align 8, !tbaa !70
  %80 = load i32, ptr %14, align 4, !tbaa !26
  %81 = sitofp i32 %80 to float
  %82 = load ptr, ptr %21, align 8, !tbaa !21
  %83 = getelementptr inbounds float, ptr %82, i64 2
  %84 = load float, ptr %83, align 4, !tbaa !29
  %85 = fmul float %81, %84
  %86 = load float, ptr %15, align 4, !tbaa !29
  %87 = load i32, ptr %11, align 4, !tbaa !26
  %88 = sitofp i32 %87 to float
  %89 = fmul float %86, %88
  %90 = load ptr, ptr %21, align 8, !tbaa !21
  %91 = getelementptr inbounds float, ptr %90, i64 3
  %92 = load float, ptr %91, align 4, !tbaa !29
  %93 = fmul float %89, %92
  %94 = fadd float %85, %93
  %95 = fpext float %94 to double
  store double %95, ptr %19, align 8, !tbaa !70
  %96 = load double, ptr %19, align 8, !tbaa !70
  %97 = load double, ptr %20, align 8, !tbaa !70
  %98 = fcmp ole double %96, %97
  %99 = select i1 %98, i32 1, i32 0
  store i32 %99, ptr %22, align 4, !tbaa !26
  %100 = load ptr, ptr %18, align 8, !tbaa !1043
  %101 = icmp ne ptr %100, null
  br i1 %101, label %102, label %118

102:                                              ; preds = %58
  %103 = load double, ptr %20, align 8, !tbaa !70
  %104 = load ptr, ptr %18, align 8, !tbaa !1043
  %105 = getelementptr inbounds nuw %struct.STBIR__V_FIRST_INFO, ptr %104, i32 0, i32 1
  store double %103, ptr %105, align 8, !tbaa !1045
  %106 = load double, ptr %19, align 8, !tbaa !70
  %107 = load ptr, ptr %18, align 8, !tbaa !1043
  %108 = getelementptr inbounds nuw %struct.STBIR__V_FIRST_INFO, ptr %107, i32 0, i32 0
  store double %106, ptr %108, align 8, !tbaa !1047
  %109 = load i32, ptr %23, align 4, !tbaa !26
  %110 = load ptr, ptr %18, align 8, !tbaa !1043
  %111 = getelementptr inbounds nuw %struct.STBIR__V_FIRST_INFO, ptr %110, i32 0, i32 4
  store i32 %109, ptr %111, align 8, !tbaa !1048
  %112 = load i32, ptr %22, align 4, !tbaa !26
  %113 = load ptr, ptr %18, align 8, !tbaa !1043
  %114 = getelementptr inbounds nuw %struct.STBIR__V_FIRST_INFO, ptr %113, i32 0, i32 3
  store i32 %112, ptr %114, align 4, !tbaa !1049
  %115 = load i32, ptr %17, align 4, !tbaa !26
  %116 = load ptr, ptr %18, align 8, !tbaa !1043
  %117 = getelementptr inbounds nuw %struct.STBIR__V_FIRST_INFO, ptr %116, i32 0, i32 5
  store i32 %115, ptr %117, align 4, !tbaa !1050
  br label %118

118:                                              ; preds = %102, %58
  %119 = load ptr, ptr %18, align 8, !tbaa !1043
  %120 = icmp ne ptr %119, null
  br i1 %120, label %121, label %132

121:                                              ; preds = %118
  %122 = load ptr, ptr %18, align 8, !tbaa !1043
  %123 = getelementptr inbounds nuw %struct.STBIR__V_FIRST_INFO, ptr %122, i32 0, i32 2
  %124 = load i32, ptr %123, align 8, !tbaa !1051
  %125 = icmp ne i32 %124, 0
  br i1 %125, label %126, label %132

126:                                              ; preds = %121
  %127 = load ptr, ptr %18, align 8, !tbaa !1043
  %128 = getelementptr inbounds nuw %struct.STBIR__V_FIRST_INFO, ptr %127, i32 0, i32 2
  %129 = load i32, ptr %128, align 8, !tbaa !1051
  %130 = icmp eq i32 %129, 2
  %131 = select i1 %130, i32 1, i32 0
  store i32 %131, ptr %22, align 4, !tbaa !26
  br label %132

132:                                              ; preds = %126, %121, %118
  %133 = load i32, ptr %22, align 4, !tbaa !26
  call void @llvm.lifetime.end.p0(i64 4, ptr %23) #12
  call void @llvm.lifetime.end.p0(i64 4, ptr %22) #12
  call void @llvm.lifetime.end.p0(i64 8, ptr %21) #12
  call void @llvm.lifetime.end.p0(i64 8, ptr %20) #12
  call void @llvm.lifetime.end.p0(i64 8, ptr %19) #12
  ret i32 %133
}