; Function Attrs: mustprogress nofree norecurse nosync nounwind willreturn memory(argmem: readwrite) uwtable
define range(i32 0, 2) i32 @stbir__should_do_vertical_first(ptr noundef readonly captures(none) %0, i32 noundef %1, float noundef %2, i32 noundef %3, i32 noundef %4, float noundef %5, i32 noundef %6, i32 noundef %7, ptr noundef captures(address_is_null) %8) local_unnamed_addr #13 {
  %10 = icmp slt i32 %6, 5
  %11 = icmp slt i32 %3, 5
  %or.cond = or i1 %11, %10
  br i1 %or.cond, label %12, label %15

12:                                               ; preds = %9
  %13 = icmp slt i32 %6, %3
  %14 = select i1 %13, i32 6, i32 7
  br label %25

15:                                               ; preds = %9
  %16 = fcmp ugt float %5, 1.000000e+00
  br i1 %16, label %19, label %17

17:                                               ; preds = %15
  %.not = icmp ne i32 %7, 0
  %18 = zext i1 %.not to i32
  br label %25

19:                                               ; preds = %15
  %20 = fcmp ugt float %5, 2.000000e+00
  br i1 %20, label %21, label %25

21:                                               ; preds = %19
  %22 = fcmp ugt float %5, 3.000000e+00
  br i1 %22, label %23, label %25

23:                                               ; preds = %21
  %24 = fcmp ugt float %5, 4.000000e+00
  %. = select i1 %24, i32 6, i32 5
  br label %25

25:                                               ; preds = %23, %21, %19, %17, %12
  %.0 = phi i32 [ %14, %12 ], [ %18, %17 ], [ 2, %19 ], [ 3, %21 ], [ %., %23 ]
  %26 = zext nneg i32 %.0 to i64
  %27 = getelementptr inbounds nuw [4 x float], ptr %0, i64 %26
  %28 = sitofp i32 %1 to float
  %29 = load float, ptr %27, align 4, !tbaa !50
  %30 = fmul float %29, %28
  %31 = sitofp i32 %4 to float
  %32 = fmul float %2, %31
  %33 = getelementptr inbounds nuw i8, ptr %27, i64 4
  %34 = load float, ptr %33, align 4, !tbaa !50
  %35 = fmul float %32, %34
  %36 = fadd float %30, %35
  %37 = getelementptr inbounds nuw i8, ptr %27, i64 8
  %38 = load float, ptr %37, align 4, !tbaa !50
  %39 = fmul float %38, %31
  %40 = fmul float %5, %28
  %41 = getelementptr inbounds nuw i8, ptr %27, i64 12
  %42 = load float, ptr %41, align 4, !tbaa !50
  %43 = fmul float %40, %42
  %44 = fadd float %39, %43
  %45 = fcmp ole float %44, %36
  %46 = zext i1 %45 to i32
  %.not42 = icmp eq ptr %8, null
  br i1 %.not42, label %.critedge, label %47

47:                                               ; preds = %25
  %48 = fpext float %36 to double
  %49 = fpext float %44 to double
  %50 = getelementptr inbounds nuw i8, ptr %8, i64 8
  store double %48, ptr %50, align 8, !tbaa !952
  store double %49, ptr %8, align 8, !tbaa !955
  %51 = getelementptr inbounds nuw i8, ptr %8, i64 24
  store i32 %.0, ptr %51, align 8, !tbaa !956
  %52 = getelementptr inbounds nuw i8, ptr %8, i64 20
  store i32 %46, ptr %52, align 4, !tbaa !957
  %53 = getelementptr inbounds nuw i8, ptr %8, i64 28
  store i32 %7, ptr %53, align 4, !tbaa !958
  %54 = getelementptr inbounds nuw i8, ptr %8, i64 16
  %55 = load i32, ptr %54, align 8, !tbaa !959
  %.not43 = icmp eq i32 %55, 0
  br i1 %.not43, label %.critedge, label %56

56:                                               ; preds = %47
  %57 = icmp eq i32 %55, 2
  %58 = zext i1 %57 to i32
  br label %.critedge

.critedge:                                        ; preds = %25, %56, %47
  %.038 = phi i32 [ %58, %56 ], [ %46, %47 ], [ %46, %25 ]
  ret i32 %.038
}